; ModuleID = 'source-C-CXX/18/2046.c'
source_filename = "source-C-CXX/18/2046.c"
target datalayout = "e-m:e-p270:32:32-p271:32:32-p272:64:64-i64:64-f80:128-n8:16:32:64-S128"
target triple = "x86_64-pc-linux-gnu"

@.str = private unnamed_addr constant [4 x i8] c"%s \00", align 1
@.str.1 = private unnamed_addr constant [3 x i8] c"%s\00", align 1

; Function Attrs: nounwind sspstrong uwtable
define dso_local i32 @main() local_unnamed_addr #0 {
  %1 = alloca [200 x i8], align 16
  %2 = alloca [200 x i8], align 16
  %3 = alloca [200 x i8], align 16
  %4 = alloca [100 x [100 x i8]], align 16
  %5 = getelementptr inbounds [200 x i8], [200 x i8]* %1, i64 0, i64 0
  call void @llvm.lifetime.start.p0i8(i64 200, i8* nonnull %5) #7
  %6 = getelementptr inbounds [200 x i8], [200 x i8]* %2, i64 0, i64 0
  call void @llvm.lifetime.start.p0i8(i64 200, i8* nonnull %6) #7
  %7 = getelementptr inbounds [200 x i8], [200 x i8]* %3, i64 0, i64 0
  call void @llvm.lifetime.start.p0i8(i64 200, i8* nonnull %7) #7
  %8 = getelementptr inbounds [100 x [100 x i8]], [100 x [100 x i8]]* %4, i64 0, i64 0, i64 0
  call void @llvm.lifetime.start.p0i8(i64 10000, i8* nonnull %8) #7
  %9 = call i32 (i8*, ...) bitcast (i32 (...)* @gets to i32 (i8*, ...)*)(i8* nonnull %5) #7
  %10 = call i32 (i8*, ...) bitcast (i32 (...)* @gets to i32 (i8*, ...)*)(i8* nonnull %6) #7
  %11 = call i32 (i8*, ...) bitcast (i32 (...)* @gets to i32 (i8*, ...)*)(i8* nonnull %7) #7
  %12 = call i64 @strlen(i8* noundef nonnull %5) #8
  %13 = trunc i64 %12 to i32
  %14 = call i32 @llvm.smax.i32(i32 %13, i32 0)
  %15 = zext i32 %14 to i64
  br label %16

16:                                               ; preds = %32, %0
  %17 = phi i64 [ %35, %32 ], [ 0, %0 ]
  %18 = phi i32 [ %33, %32 ], [ 0, %0 ]
  %19 = phi i32 [ %34, %32 ], [ 0, %0 ]
  %20 = icmp eq i64 %17, %15
  br i1 %20, label %43, label %21

21:                                               ; preds = %16
  %22 = getelementptr inbounds [200 x i8], [200 x i8]* %1, i64 0, i64 %17
  %23 = load i8, i8* %22, align 1, !tbaa !5
  %24 = icmp eq i8 %23, 32
  %25 = sext i32 %18 to i64
  %26 = sext i32 %19 to i64
  %27 = getelementptr inbounds [100 x [100 x i8]], [100 x [100 x i8]]* %4, i64 0, i64 %25, i64 %26
  br i1 %24, label %28, label %30

28:                                               ; preds = %21
  store i8 0, i8* %27, align 1, !tbaa !5
  %29 = add nsw i32 %18, 1
  br label %32

30:                                               ; preds = %21
  store i8 %23, i8* %27, align 1, !tbaa !5
  %31 = add nsw i32 %19, 1
  br label %32

32:                                               ; preds = %30, %28
  %33 = phi i32 [ %29, %28 ], [ %18, %30 ]
  %34 = phi i32 [ 0, %28 ], [ %31, %30 ]
  %35 = add nuw nsw i64 %17, 1
  %36 = getelementptr inbounds [200 x i8], [200 x i8]* %1, i64 0, i64 %35
  %37 = load i8, i8* %36, align 1, !tbaa !5
  %38 = icmp eq i8 %37, 0
  br i1 %38, label %39, label %16, !llvm.loop !8

39:                                               ; preds = %32
  %40 = sext i32 %33 to i64
  %41 = sext i32 %34 to i64
  %42 = getelementptr inbounds [100 x [100 x i8]], [100 x [100 x i8]]* %4, i64 0, i64 %40, i64 %41
  store i8 0, i8* %42, align 1, !tbaa !5
  br label %43

43:                                               ; preds = %16, %39
  %44 = phi i32 [ %33, %39 ], [ %18, %16 ]
  %45 = icmp slt i32 %44, 0
  br i1 %45, label %69, label %46

46:                                               ; preds = %43
  %47 = add nuw i32 %44, 1
  %48 = zext i32 %47 to i64
  br label %53

49:                                               ; preds = %60
  %50 = icmp sgt i32 %44, 0
  br i1 %50, label %51, label %69

51:                                               ; preds = %49
  %52 = zext i32 %44 to i64
  br label %63

53:                                               ; preds = %46, %60
  %54 = phi i64 [ 0, %46 ], [ %61, %60 ]
  %55 = getelementptr inbounds [100 x [100 x i8]], [100 x [100 x i8]]* %4, i64 0, i64 %54, i64 0
  %56 = call i32 @strcmp(i8* noundef nonnull %6, i8* noundef nonnull %55) #8
  %57 = icmp eq i32 %56, 0
  br i1 %57, label %58, label %60

58:                                               ; preds = %53
  %59 = call i8* @strcpy(i8* noundef nonnull %55, i8* noundef nonnull %7) #7
  br label %60

60:                                               ; preds = %53, %58
  %61 = add nuw nsw i64 %54, 1
  %62 = icmp eq i64 %61, %48
  br i1 %62, label %49, label %53, !llvm.loop !10

63:                                               ; preds = %51, %63
  %64 = phi i64 [ 0, %51 ], [ %67, %63 ]
  %65 = getelementptr inbounds [100 x [100 x i8]], [100 x [100 x i8]]* %4, i64 0, i64 %64, i64 0
  %66 = call i32 (i8*, ...) @printf(i8* nonnull dereferenceable(1) getelementptr inbounds ([4 x i8], [4 x i8]* @.str, i64 0, i64 0), i8* nonnull %65)
  %67 = add nuw nsw i64 %64, 1
  %68 = icmp eq i64 %67, %52
  br i1 %68, label %69, label %63, !llvm.loop !11

69:                                               ; preds = %63, %43, %49
  %70 = sext i32 %44 to i64
  %71 = getelementptr inbounds [100 x [100 x i8]], [100 x [100 x i8]]* %4, i64 0, i64 %70, i64 0
  %72 = call i32 (i8*, ...) @printf(i8* nonnull dereferenceable(1) getelementptr inbounds ([3 x i8], [3 x i8]* @.str.1, i64 0, i64 0), i8* nonnull %71)
  call void @llvm.lifetime.end.p0i8(i64 10000, i8* nonnull %8) #7
  call void @llvm.lifetime.end.p0i8(i64 200, i8* nonnull %7) #7
  call void @llvm.lifetime.end.p0i8(i64 200, i8* nonnull %6) #7
  call void @llvm.lifetime.end.p0i8(i64 200, i8* nonnull %5) #7
  ret i32 0
}

; Function Attrs: argmemonly mustprogress nofree nosync nounwind willreturn
declare void @llvm.lifetime.start.p0i8(i64 immarg, i8* nocapture) #1

declare i32 @gets(...) local_unnamed_addr #2

; Function Attrs: argmemonly mustprogress nofree nounwind readonly willreturn
declare i64 @strlen(i8* nocapture) local_unnamed_addr #3

; Function Attrs: argmemonly mustprogress nofree nounwind readonly willreturn
declare i32 @strcmp(i8* nocapture, i8* nocapture) local_unnamed_addr #3

; Function Attrs: argmemonly mustprogress nofree nounwind willreturn
declare i8* @strcpy(i8* noalias returned writeonly, i8* noalias nocapture readonly) local_unnamed_addr #4

; Function Attrs: nofree nounwind
declare noundef i32 @printf(i8* nocapture noundef readonly, ...) local_unnamed_addr #5

; Function Attrs: argmemonly mustprogress nofree nosync nounwind willreturn
declare void @llvm.lifetime.end.p0i8(i64 immarg, i8* nocapture) #1

; Function Attrs: nofree nosync nounwind readnone speculatable willreturn
declare i32 @llvm.smax.i32(i32, i32) #6


!llvm.module.flags = !{!0, !1, !2, !3}
!llvm.ident = !{!4}

!0 = !{i32 1, !"wchar_size", i32 4}
!1 = !{i32 7, !"PIC Level", i32 2}
!2 = !{i32 7, !"PIE Level", i32 2}
!3 = !{i32 7, !"uwtable", i32 1}
!4 = !{!"clang version 13.0.0"}
!5 = !{!6, !6, i64 0}
!6 = !{!"omnipotent char", !7, i64 0}
!7 = !{!"Simple C/C++ TBAA"}
!8 = distinct !{!8, !9}
!9 = !{!"llvm.loop.mustprogress"}
!10 = distinct !{!10, !9}
!11 = distinct !{!11, !9}
